target datalayout = "e-m:e-p270:32:32-p271:32:32-p272:64:64-i64:64-i128:128-f80:128-n8:16:32:64-S128"
target triple = "x86_64-pc-linux-gnu"

; Function Attrs: nounwind uwtable
define dso_local i32 @resolve_aggregate_transtype(i32 noundef %0, i32 noundef %1, ptr noundef %2, i32 noundef %3) #0 {
  %5 = alloca i32, align 4
  %6 = alloca i32, align 4
  %7 = alloca ptr, align 8
  %8 = alloca i32, align 4
  %9 = alloca ptr, align 8
  %10 = alloca i32, align 4
  store i32 %0, ptr %5, align 4
  store i32 %1, ptr %6, align 4
  store ptr %2, ptr %7, align 8
  store i32 %3, ptr %8, align 4
  %11 = load i32, ptr %6, align 4
  %12 = icmp eq i32 %11, 2283
  br i1 %12, label %43, label %13

13:                                               ; preds = %4
  %14 = load i32, ptr %6, align 4
  %15 = icmp eq i32 %14, 2277
  br i1 %15, label %43, label %16

16:                                               ; preds = %13
  %17 = load i32, ptr %6, align 4
  %18 = icmp eq i32 %17, 2776
  br i1 %18, label %43, label %19

19:                                               ; preds = %16
  %20 = load i32, ptr %6, align 4
  %21 = icmp eq i32 %20, 3500
  br i1 %21, label %43, label %22

22:                                               ; preds = %19
  %23 = load i32, ptr %6, align 4
  %24 = icmp eq i32 %23, 3831
  br i1 %24, label %43, label %25

25:                                               ; preds = %22
  %26 = load i32, ptr %6, align 4
  %27 = icmp eq i32 %26, 4537
  br i1 %27, label %43, label %28

28:                                               ; preds = %25
  %29 = load i32, ptr %6, align 4
  %30 = icmp eq i32 %29, 5077
  br i1 %30, label %43, label %31

31:                                               ; preds = %28
  %32 = load i32, ptr %6, align 4
  %33 = icmp eq i32 %32, 5078
  br i1 %33, label %43, label %34

34:                                               ; preds = %31
  %35 = load i32, ptr %6, align 4
  %36 = icmp eq i32 %35, 5079
  br i1 %36, label %43, label %37

37:                                               ; preds = %34
  %38 = load i32, ptr %6, align 4
  %39 = icmp eq i32 %38, 5080
  br i1 %39, label %43, label %40

40:                                               ; preds = %37
  %41 = load i32, ptr %6, align 4
  %42 = icmp eq i32 %41, 4538
  br i1 %42, label %43, label %52

43:                                               ; preds = %40, %37, %34, %31, %28, %25, %22, %19, %16, %13, %4
  call void @llvm.lifetime.start.p0(i64 8, ptr %9) #7
  call void @llvm.lifetime.start.p0(i64 4, ptr %10) #7
  %44 = load i32, ptr %5, align 4
  %45 = call i32 @get_func_signature(i32 noundef %44, ptr noundef %9, ptr noundef %10)
  %46 = load ptr, ptr %7, align 8
  %47 = load ptr, ptr %9, align 8
  %48 = load i32, ptr %10, align 4
  %49 = load i32, ptr %6, align 4
  %50 = call i32 @enforce_generic_type_consistency(ptr noundef %46, ptr noundef %47, i32 noundef %48, i32 noundef %49, i1 noundef zeroext false)
  store i32 %50, ptr %6, align 4
  %51 = load ptr, ptr %9, align 8
  call void @pfree(ptr noundef %51)
  call void @llvm.lifetime.end.p0(i64 4, ptr %10) #7
  call void @llvm.lifetime.end.p0(i64 8, ptr %9) #7
  br label %52

52:                                               ; preds = %43, %40
  %53 = load i32, ptr %6, align 4
  ret i32 %53
}