; Function Attrs: nounwind uwtable
define dso_local i32 @resolve_aggregate_transtype(i32 noundef %0, i32 noundef %1, ptr noundef %2, i32 noundef %3) local_unnamed_addr #0 {
  %5 = alloca ptr, align 8
  %6 = alloca i32, align 4
  switch i32 %1, label %13 [
    i32 5080, label %7
    i32 5079, label %7
    i32 5078, label %7
    i32 5077, label %7
    i32 4538, label %7
    i32 4537, label %7
    i32 3831, label %7
    i32 3500, label %7
    i32 2776, label %7
    i32 2283, label %7
    i32 2277, label %7
  ]

7:                                                ; preds = %4, %4, %4, %4, %4, %4, %4, %4, %4, %4, %4
  call void @llvm.lifetime.start.p0(i64 8, ptr nonnull %5) #11
  call void @llvm.lifetime.start.p0(i64 4, ptr nonnull %6) #11
  %8 = call i32 @get_func_signature(i32 noundef %0, ptr noundef nonnull %5, ptr noundef nonnull %6) #11
  %9 = load ptr, ptr %5, align 8
  %10 = load i32, ptr %6, align 4
  %11 = call i32 @enforce_generic_type_consistency(ptr noundef %2, ptr noundef %9, i32 noundef %10, i32 noundef %1, i1 noundef zeroext false) #11
  %12 = load ptr, ptr %5, align 8
  call void @pfree(ptr noundef %12) #11
  call void @llvm.lifetime.end.p0(i64 4, ptr nonnull %6) #11
  call void @llvm.lifetime.end.p0(i64 8, ptr nonnull %5) #11
  br label %13

13:                                               ; preds = %4, %7
  %.0 = phi i32 [ %11, %7 ], [ %1, %4 ]
  ret i32 %.0
}